target datalayout = "e-m:e-p270:32:32-p271:32:32-p272:64:64-i64:64-i128:128-f80:128-n8:16:32:64-S128"
target triple = "x86_64-pc-linux-gnu"

%struct._dcerpc_info = type { ptr, i32, i64, i8, i8, i8, i32, i32, i32, i32, i32, i32, i32, i32, ptr, ptr, ptr, ptr, %struct.anon }
%struct.anon = type { i8, ptr, ptr, ptr, i8 }

@ett_mapi_RegisterNotification_req = internal global i32 0, align 4
@hf_mapi_InputHandleIndex = internal global i32 0, align 4
@hf_mapi_LogonId = internal global i32 0, align 4
@hf_mapi_OutputHandleIndex = internal global i32 0, align 4
@hf_mapi_RegisterNotification_req_layout = internal global i32 0, align 4
@hf_mapi_RegisterNotification_req_notificationFlags = internal global i32 0, align 4
@hf_mapi_RegisterNotification_req_u = internal global i32 0, align 4
@hf_mapi_hyperbool_ID = internal global i32 0, align 4
@ett_mapi_hyperbool = internal global i32 0, align 4
@.str.6157 = private unnamed_addr constant [10 x i8] c"hyperbool\00", align 1

; Function Attrs: null_pointer_is_valid sspstrong uwtable
define internal i32 @mapi_dissect_element_hyperbool_ID(ptr noundef %0, i32 noundef %1, ptr noundef %2, ptr noundef %3, ptr noundef %4, ptr noundef %5) #0 {
  %7 = alloca ptr, align 8
  %8 = alloca i32, align 4
  %9 = alloca ptr, align 8
  %10 = alloca ptr, align 8
  %11 = alloca ptr, align 8
  %12 = alloca ptr, align 8
  store ptr %0, ptr %7, align 8
  store i32 %1, ptr %8, align 4
  store ptr %2, ptr %9, align 8
  store ptr %3, ptr %10, align 8
  store ptr %4, ptr %11, align 8
  store ptr %5, ptr %12, align 8
  %13 = load ptr, ptr %7, align 8
  %14 = load i32, ptr %8, align 4
  %15 = load ptr, ptr %9, align 8
  %16 = load ptr, ptr %10, align 8
  %17 = load ptr, ptr %11, align 8
  %18 = load ptr, ptr %12, align 8
  %19 = load i32, ptr @hf_mapi_hyperbool_ID, align 4
  %20 = call i32 @dissect_ndr_uint64(ptr noundef %13, i32 noundef %14, ptr noundef %15, ptr noundef %16, ptr noundef %17, ptr noundef %18, i32 noundef %19, ptr noundef null)
  store i32 %20, ptr %8, align 4
  %21 = load i32, ptr %8, align 4
  ret i32 %21
}

; Function Attrs: null_pointer_is_valid sspstrong uwtable
define internal i32 @mapi_dissect_hyperbool(ptr noundef %0, i32 noundef %1, ptr noundef %2, ptr noundef %3, ptr noundef %4, ptr noundef %5, i32 noundef %6, i32 noundef %7) #0 {
  %9 = alloca ptr, align 8
  %10 = alloca i32, align 4
  %11 = alloca ptr, align 8
  %12 = alloca ptr, align 8
  %13 = alloca ptr, align 8
  %14 = alloca ptr, align 8
  %15 = alloca i32, align 4
  %16 = alloca i32, align 4
  %17 = alloca ptr, align 8
  %18 = alloca ptr, align 8
  %19 = alloca i32, align 4
  %20 = alloca i32, align 4
  store ptr %0, ptr %9, align 8
  store i32 %1, ptr %10, align 4
  store ptr %2, ptr %11, align 8
  store ptr %3, ptr %12, align 8
  store ptr %4, ptr %13, align 8
  store ptr %5, ptr %14, align 8
  store i32 %6, ptr %15, align 4
  store i32 %7, ptr %16, align 4
  call void @llvm.lifetime.start.p0(i64 8, ptr %17) #5
  store ptr null, ptr %17, align 8
  call void @llvm.lifetime.start.p0(i64 8, ptr %18) #5
  store ptr null, ptr %18, align 8
  call void @llvm.lifetime.start.p0(i64 4, ptr %19) #5
  call void @llvm.lifetime.start.p0(i64 4, ptr %20) #5
  %21 = load i32, ptr %16, align 4
  store i32 %21, ptr %20, align 4
  %22 = load i32, ptr %10, align 4
  store i32 %22, ptr %19, align 4
  %23 = load ptr, ptr %12, align 8
  %24 = icmp ne ptr %23, null
  br i1 %24, label %25, label %31

25:                                               ; preds = %8
  %26 = load ptr, ptr %12, align 8
  %27 = load ptr, ptr %9, align 8
  %28 = load i32, ptr %10, align 4
  %29 = load i32, ptr @ett_mapi_hyperbool, align 4
  %30 = call ptr @proto_tree_add_subtree(ptr noundef %26, ptr noundef %27, i32 noundef %28, i32 noundef -1, i32 noundef %29, ptr noundef %17, ptr noundef @.str.6157)
  store ptr %30, ptr %18, align 8
  br label %31

31:                                               ; preds = %25, %8
  %32 = load i32, ptr %20, align 4
  switch i32 %32, label %41 [
    i32 0, label %33
    i32 1, label %41
  ]

33:                                               ; preds = %31
  %34 = load ptr, ptr %9, align 8
  %35 = load i32, ptr %10, align 4
  %36 = load ptr, ptr %11, align 8
  %37 = load ptr, ptr %18, align 8
  %38 = load ptr, ptr %13, align 8
  %39 = load ptr, ptr %14, align 8
  %40 = call i32 @mapi_dissect_element_hyperbool_ID(ptr noundef %34, i32 noundef %35, ptr noundef %36, ptr noundef %37, ptr noundef %38, ptr noundef %39)
  store i32 %40, ptr %10, align 4
  br label %41

41:                                               ; preds = %31, %31, %33
  %42 = load ptr, ptr %17, align 8
  %43 = load i32, ptr %10, align 4
  %44 = load i32, ptr %19, align 4
  %45 = sub i32 %43, %44
  call void @proto_item_set_len(ptr noundef %42, i32 noundef %45)
  %46 = load i32, ptr %10, align 4
  call void @llvm.lifetime.end.p0(i64 4, ptr %20) #5
  call void @llvm.lifetime.end.p0(i64 4, ptr %19) #5
  call void @llvm.lifetime.end.p0(i64 8, ptr %18) #5
  call void @llvm.lifetime.end.p0(i64 8, ptr %17) #5
  ret i32 %46
}

; Function Attrs: null_pointer_is_valid sspstrong uwtable
define hidden i32 @mapi_dissect_enum_NotificationFlags(ptr noundef %0, i32 noundef %1, ptr noundef %2, ptr noundef %3, ptr noundef %4, ptr noundef %5, i32 noundef %6, ptr noundef %7) #0 {
  %9 = alloca ptr, align 8
  %10 = alloca i32, align 4
  %11 = alloca ptr, align 8
  %12 = alloca ptr, align 8
  %13 = alloca ptr, align 8
  %14 = alloca ptr, align 8
  %15 = alloca i32, align 4
  %16 = alloca ptr, align 8
  %17 = alloca i16, align 2
  store ptr %0, ptr %9, align 8
  store i32 %1, ptr %10, align 4
  store ptr %2, ptr %11, align 8
  store ptr %3, ptr %12, align 8
  store ptr %4, ptr %13, align 8
  store ptr %5, ptr %14, align 8
  store i32 %6, ptr %15, align 4
  store ptr %7, ptr %16, align 8
  call void @llvm.lifetime.start.p0(i64 2, ptr %17) #5
  store i16 0, ptr %17, align 2
  %18 = load ptr, ptr %16, align 8
  %19 = icmp ne ptr %18, null
  br i1 %19, label %20, label %23

20:                                               ; preds = %8
  %21 = load ptr, ptr %16, align 8
  %22 = load i16, ptr %21, align 2
  store i16 %22, ptr %17, align 2
  br label %23

23:                                               ; preds = %20, %8
  %24 = load ptr, ptr %9, align 8
  %25 = load i32, ptr %10, align 4
  %26 = load ptr, ptr %11, align 8
  %27 = load ptr, ptr %12, align 8
  %28 = load ptr, ptr %13, align 8
  %29 = load ptr, ptr %14, align 8
  %30 = load i32, ptr %15, align 4
  %31 = call i32 @dissect_ndr_uint16(ptr noundef %24, i32 noundef %25, ptr noundef %26, ptr noundef %27, ptr noundef %28, ptr noundef %29, i32 noundef %30, ptr noundef %17)
  store i32 %31, ptr %10, align 4
  %32 = load ptr, ptr %16, align 8
  %33 = icmp ne ptr %32, null
  br i1 %33, label %34, label %37

34:                                               ; preds = %23
  %35 = load i16, ptr %17, align 2
  %36 = load ptr, ptr %16, align 8
  store i16 %35, ptr %36, align 2
  br label %37

37:                                               ; preds = %34, %23
  %38 = load i32, ptr %10, align 4
  call void @llvm.lifetime.end.p0(i64 2, ptr %17) #5
  ret i32 %38
}

; Function Attrs: null_pointer_is_valid sspstrong uwtable
define internal i32 @mapi_dissect_element_RegisterNotification_req_u(ptr noundef %0, i32 noundef %1, ptr noundef %2, ptr noundef %3, ptr noundef %4, ptr noundef %5, ptr noundef %6) #0 {
  %8 = alloca ptr, align 8
  %9 = alloca i32, align 4
  %10 = alloca ptr, align 8
  %11 = alloca ptr, align 8
  %12 = alloca ptr, align 8
  %13 = alloca ptr, align 8
  %14 = alloca ptr, align 8
  store ptr %0, ptr %8, align 8
  store i32 %1, ptr %9, align 4
  store ptr %2, ptr %10, align 8
  store ptr %3, ptr %11, align 8
  store ptr %4, ptr %12, align 8
  store ptr %5, ptr %13, align 8
  store ptr %6, ptr %14, align 8
  %15 = load ptr, ptr %8, align 8
  %16 = load i32, ptr %9, align 4
  %17 = load ptr, ptr %10, align 8
  %18 = load ptr, ptr %11, align 8
  %19 = load ptr, ptr %12, align 8
  %20 = load ptr, ptr %13, align 8
  %21 = load i32, ptr @hf_mapi_RegisterNotification_req_u, align 4
  %22 = load ptr, ptr %14, align 8
  %23 = load i8, ptr %22, align 1
  %24 = zext i8 %23 to i32
  %25 = call i32 @mapi_dissect_hyperbool(ptr noundef %15, i32 noundef %16, ptr noundef %17, ptr noundef %18, ptr noundef %19, ptr noundef %20, i32 noundef %21, i32 noundef %24)
  store i32 %25, ptr %9, align 4
  %26 = load i32, ptr %9, align 4
  ret i32 %26
}

; Function Attrs: null_pointer_is_valid sspstrong uwtable
define internal i32 @mapi_dissect_element_RegisterNotification_req_layout(ptr noundef %0, i32 noundef %1, ptr noundef %2, ptr noundef %3, ptr noundef %4, ptr noundef %5, ptr noundef %6) #0 {
  %8 = alloca ptr, align 8
  %9 = alloca i32, align 4
  %10 = alloca ptr, align 8
  %11 = alloca ptr, align 8
  %12 = alloca ptr, align 8
  %13 = alloca ptr, align 8
  %14 = alloca ptr, align 8
  store ptr %0, ptr %8, align 8
  store i32 %1, ptr %9, align 4
  store ptr %2, ptr %10, align 8
  store ptr %3, ptr %11, align 8
  store ptr %4, ptr %12, align 8
  store ptr %5, ptr %13, align 8
  store ptr %6, ptr %14, align 8
  %15 = load ptr, ptr %8, align 8
  %16 = load i32, ptr %9, align 4
  %17 = load ptr, ptr %10, align 8
  %18 = load ptr, ptr %11, align 8
  %19 = load ptr, ptr %12, align 8
  %20 = load ptr, ptr %13, align 8
  %21 = load i32, ptr @hf_mapi_RegisterNotification_req_layout, align 4
  %22 = load ptr, ptr %14, align 8
  %23 = load i8, ptr %22, align 1
  %24 = zext i8 %23 to i32
  %25 = call i32 @PIDL_dissect_uint8(ptr noundef %15, i32 noundef %16, ptr noundef %17, ptr noundef %18, ptr noundef %19, ptr noundef %20, i32 noundef %21, i32 noundef %24)
  store i32 %25, ptr %9, align 4
  %26 = load i32, ptr %9, align 4
  ret i32 %26
}

; Function Attrs: null_pointer_is_valid sspstrong uwtable
define internal i32 @mapi_dissect_element_RegisterNotification_req_notificationFlags(ptr noundef %0, i32 noundef %1, ptr noundef %2, ptr noundef %3, ptr noundef %4, ptr noundef %5) #0 {
  %7 = alloca ptr, align 8
  %8 = alloca i32, align 4
  %9 = alloca ptr, align 8
  %10 = alloca ptr, align 8
  %11 = alloca ptr, align 8
  %12 = alloca ptr, align 8
  store ptr %0, ptr %7, align 8
  store i32 %1, ptr %8, align 4
  store ptr %2, ptr %9, align 8
  store ptr %3, ptr %10, align 8
  store ptr %4, ptr %11, align 8
  store ptr %5, ptr %12, align 8
  %13 = load ptr, ptr %7, align 8
  %14 = load i32, ptr %8, align 4
  %15 = load ptr, ptr %9, align 8
  %16 = load ptr, ptr %10, align 8
  %17 = load ptr, ptr %11, align 8
  %18 = load ptr, ptr %12, align 8
  %19 = load i32, ptr @hf_mapi_RegisterNotification_req_notificationFlags, align 4
  %20 = call i32 @mapi_dissect_enum_NotificationFlags(ptr noundef %13, i32 noundef %14, ptr noundef %15, ptr noundef %16, ptr noundef %17, ptr noundef %18, i32 noundef %19, ptr noundef null)
  store i32 %20, ptr %8, align 4
  %21 = load i32, ptr %8, align 4
  ret i32 %21
}

; Function Attrs: null_pointer_is_valid sspstrong uwtable
define internal i32 @mapi_dissect_element_RegisterNotification_req_OutputHandleIndex(ptr noundef %0, i32 noundef %1, ptr noundef %2, ptr noundef %3, ptr noundef %4, ptr noundef %5) #0 {
  %7 = alloca ptr, align 8
  %8 = alloca i32, align 4
  %9 = alloca ptr, align 8
  %10 = alloca ptr, align 8
  %11 = alloca ptr, align 8
  %12 = alloca ptr, align 8
  store ptr %0, ptr %7, align 8
  store i32 %1, ptr %8, align 4
  store ptr %2, ptr %9, align 8
  store ptr %3, ptr %10, align 8
  store ptr %4, ptr %11, align 8
  store ptr %5, ptr %12, align 8
  %13 = load ptr, ptr %7, align 8
  %14 = load i32, ptr %8, align 4
  %15 = load ptr, ptr %9, align 8
  %16 = load ptr, ptr %10, align 8
  %17 = load ptr, ptr %11, align 8
  %18 = load ptr, ptr %12, align 8
  %19 = load i32, ptr @hf_mapi_OutputHandleIndex, align 4
  %20 = call i32 @PIDL_dissect_uint8(ptr noundef %13, i32 noundef %14, ptr noundef %15, ptr noundef %16, ptr noundef %17, ptr noundef %18, i32 noundef %19, i32 noundef 0)
  store i32 %20, ptr %8, align 4
  %21 = load i32, ptr %8, align 4
  ret i32 %21
}

; Function Attrs: null_pointer_is_valid sspstrong uwtable
define internal i32 @mapi_dissect_element_RegisterNotification_req_InputHandleIndex(ptr noundef %0, i32 noundef %1, ptr noundef %2, ptr noundef %3, ptr noundef %4, ptr noundef %5) #0 {
  %7 = alloca ptr, align 8
  %8 = alloca i32, align 4
  %9 = alloca ptr, align 8
  %10 = alloca ptr, align 8
  %11 = alloca ptr, align 8
  %12 = alloca ptr, align 8
  store ptr %0, ptr %7, align 8
  store i32 %1, ptr %8, align 4
  store ptr %2, ptr %9, align 8
  store ptr %3, ptr %10, align 8
  store ptr %4, ptr %11, align 8
  store ptr %5, ptr %12, align 8
  %13 = load ptr, ptr %7, align 8
  %14 = load i32, ptr %8, align 4
  %15 = load ptr, ptr %9, align 8
  %16 = load ptr, ptr %10, align 8
  %17 = load ptr, ptr %11, align 8
  %18 = load ptr, ptr %12, align 8
  %19 = load i32, ptr @hf_mapi_InputHandleIndex, align 4
  %20 = call i32 @PIDL_dissect_uint8(ptr noundef %13, i32 noundef %14, ptr noundef %15, ptr noundef %16, ptr noundef %17, ptr noundef %18, i32 noundef %19, i32 noundef 0)
  store i32 %20, ptr %8, align 4
  %21 = load i32, ptr %8, align 4
  ret i32 %21
}

; Function Attrs: null_pointer_is_valid sspstrong uwtable
define internal i32 @mapi_dissect_element_RegisterNotification_req_LogonId(ptr noundef %0, i32 noundef %1, ptr noundef %2, ptr noundef %3, ptr noundef %4, ptr noundef %5) #0 {
  %7 = alloca ptr, align 8
  %8 = alloca i32, align 4
  %9 = alloca ptr, align 8
  %10 = alloca ptr, align 8
  %11 = alloca ptr, align 8
  %12 = alloca ptr, align 8
  store ptr %0, ptr %7, align 8
  store i32 %1, ptr %8, align 4
  store ptr %2, ptr %9, align 8
  store ptr %3, ptr %10, align 8
  store ptr %4, ptr %11, align 8
  store ptr %5, ptr %12, align 8
  %13 = load ptr, ptr %7, align 8
  %14 = load i32, ptr %8, align 4
  %15 = load ptr, ptr %9, align 8
  %16 = load ptr, ptr %10, align 8
  %17 = load ptr, ptr %11, align 8
  %18 = load ptr, ptr %12, align 8
  %19 = load i32, ptr @hf_mapi_LogonId, align 4
  %20 = call i32 @PIDL_dissect_uint8(ptr noundef %13, i32 noundef %14, ptr noundef %15, ptr noundef %16, ptr noundef %17, ptr noundef %18, i32 noundef %19, i32 noundef 0)
  store i32 %20, ptr %8, align 4
  %21 = load i32, ptr %8, align 4
  ret i32 %21
}

; Function Attrs: null_pointer_is_valid sspstrong uwtable
define hidden i32 @mapi_dissect_struct_RegisterNotification_req(ptr noundef %0, i32 noundef %1, ptr noundef %2, ptr noundef %3, ptr noundef %4, ptr noundef %5, i32 noundef %6, i32 noundef %7) #0 {
  %9 = alloca ptr, align 8
  %10 = alloca i32, align 4
  %11 = alloca ptr, align 8
  %12 = alloca ptr, align 8
  %13 = alloca ptr, align 8
  %14 = alloca ptr, align 8
  %15 = alloca i32, align 4
  %16 = alloca i32, align 4
  %17 = alloca i8, align 1
  %18 = alloca ptr, align 8
  %19 = alloca ptr, align 8
  %20 = alloca i8, align 1
  %21 = alloca i32, align 4
  store ptr %0, ptr %9, align 8
  store i32 %1, ptr %10, align 4
  store ptr %2, ptr %11, align 8
  store ptr %3, ptr %12, align 8
  store ptr %4, ptr %13, align 8
  store ptr %5, ptr %14, align 8
  store i32 %6, ptr %15, align 4
  store i32 %7, ptr %16, align 4
  call void @llvm.lifetime.start.p0(i64 1, ptr %17) #5
  store i8 0, ptr %17, align 1
  call void @llvm.lifetime.start.p0(i64 8, ptr %18) #5
  store ptr null, ptr %18, align 8
  call void @llvm.lifetime.start.p0(i64 8, ptr %19) #5
  store ptr null, ptr %19, align 8
  call void @llvm.lifetime.start.p0(i64 1, ptr %20) #5
  %22 = load ptr, ptr %13, align 8
  %23 = getelementptr inbounds nuw %struct._dcerpc_info, ptr %22, i32 0, i32 5
  %24 = load i8, ptr %23, align 2, !range !6, !noundef !7
  %25 = trunc i8 %24 to i1
  %26 = zext i1 %25 to i8
  store i8 %26, ptr %20, align 1
  call void @llvm.lifetime.start.p0(i64 4, ptr %21) #5
  %27 = load ptr, ptr %13, align 8
  %28 = getelementptr inbounds nuw %struct._dcerpc_info, ptr %27, i32 0, i32 5
  store i8 1, ptr %28, align 2
  %29 = load i32, ptr %10, align 4
  store i32 %29, ptr %21, align 4
  %30 = load ptr, ptr %12, align 8
  %31 = icmp ne ptr %30, null
  br i1 %31, label %32, label %41

32:                                               ; preds = %8
  %33 = load ptr, ptr %12, align 8
  %34 = load i32, ptr %15, align 4
  %35 = load ptr, ptr %9, align 8
  %36 = load i32, ptr %10, align 4
  %37 = call ptr @proto_tree_add_item(ptr noundef %33, i32 noundef %34, ptr noundef %35, i32 noundef %36, i32 noundef -1, i32 noundef 0)
  store ptr %37, ptr %18, align 8
  %38 = load ptr, ptr %18, align 8
  %39 = load i32, ptr @ett_mapi_RegisterNotification_req, align 4
  %40 = call ptr @proto_item_add_subtree(ptr noundef %38, i32 noundef %39)
  store ptr %40, ptr %19, align 8
  br label %41

41:                                               ; preds = %32, %8
  %42 = load ptr, ptr %9, align 8
  %43 = load i32, ptr %10, align 4
  %44 = load ptr, ptr %11, align 8
  %45 = load ptr, ptr %19, align 8
  %46 = load ptr, ptr %13, align 8
  %47 = load ptr, ptr %14, align 8
  %48 = call i32 @mapi_dissect_element_RegisterNotification_req_LogonId(ptr noundef %42, i32 noundef %43, ptr noundef %44, ptr noundef %45, ptr noundef %46, ptr noundef %47)
  store i32 %48, ptr %10, align 4
  %49 = load ptr, ptr %9, align 8
  %50 = load i32, ptr %10, align 4
  %51 = load ptr, ptr %11, align 8
  %52 = load ptr, ptr %19, align 8
  %53 = load ptr, ptr %13, align 8
  %54 = load ptr, ptr %14, align 8
  %55 = call i32 @mapi_dissect_element_RegisterNotification_req_InputHandleIndex(ptr noundef %49, i32 noundef %50, ptr noundef %51, ptr noundef %52, ptr noundef %53, ptr noundef %54)
  store i32 %55, ptr %10, align 4
  %56 = load ptr, ptr %9, align 8
  %57 = load i32, ptr %10, align 4
  %58 = load ptr, ptr %11, align 8
  %59 = load ptr, ptr %19, align 8
  %60 = load ptr, ptr %13, align 8
  %61 = load ptr, ptr %14, align 8
  %62 = call i32 @mapi_dissect_element_RegisterNotification_req_OutputHandleIndex(ptr noundef %56, i32 noundef %57, ptr noundef %58, ptr noundef %59, ptr noundef %60, ptr noundef %61)
  store i32 %62, ptr %10, align 4
  %63 = load ptr, ptr %9, align 8
  %64 = load i32, ptr %10, align 4
  %65 = load ptr, ptr %11, align 8
  %66 = load ptr, ptr %19, align 8
  %67 = load ptr, ptr %13, align 8
  %68 = load ptr, ptr %14, align 8
  %69 = call i32 @mapi_dissect_element_RegisterNotification_req_notificationFlags(ptr noundef %63, i32 noundef %64, ptr noundef %65, ptr noundef %66, ptr noundef %67, ptr noundef %68)
  store i32 %69, ptr %10, align 4
  %70 = load ptr, ptr %9, align 8
  %71 = load i32, ptr %10, align 4
  %72 = load ptr, ptr %11, align 8
  %73 = load ptr, ptr %19, align 8
  %74 = load ptr, ptr %13, align 8
  %75 = load ptr, ptr %14, align 8
  %76 = call i32 @mapi_dissect_element_RegisterNotification_req_layout(ptr noundef %70, i32 noundef %71, ptr noundef %72, ptr noundef %73, ptr noundef %74, ptr noundef %75, ptr noundef %17)
  store i32 %76, ptr %10, align 4
  %77 = load ptr, ptr %9, align 8
  %78 = load i32, ptr %10, align 4
  %79 = load ptr, ptr %11, align 8
  %80 = load ptr, ptr %19, align 8
  %81 = load ptr, ptr %13, align 8
  %82 = load ptr, ptr %14, align 8
  %83 = call i32 @mapi_dissect_element_RegisterNotification_req_u(ptr noundef %77, i32 noundef %78, ptr noundef %79, ptr noundef %80, ptr noundef %81, ptr noundef %82, ptr noundef %17)
  store i32 %83, ptr %10, align 4
  %84 = load ptr, ptr %18, align 8
  %85 = load i32, ptr %10, align 4
  %86 = load i32, ptr %21, align 4
  %87 = sub i32 %85, %86
  call void @proto_item_set_len(ptr noundef %84, i32 noundef %87)
  %88 = load i8, ptr %20, align 1, !range !6, !noundef !7
  %89 = trunc i8 %88 to i1
  %90 = load ptr, ptr %13, align 8
  %91 = getelementptr inbounds nuw %struct._dcerpc_info, ptr %90, i32 0, i32 5
  %92 = zext i1 %89 to i8
  store i8 %92, ptr %91, align 2
  %93 = load i32, ptr %10, align 4
  call void @llvm.lifetime.end.p0(i64 4, ptr %21) #5
  call void @llvm.lifetime.end.p0(i64 1, ptr %20) #5
  call void @llvm.lifetime.end.p0(i64 8, ptr %19) #5
  call void @llvm.lifetime.end.p0(i64 8, ptr %18) #5
  call void @llvm.lifetime.end.p0(i64 1, ptr %17) #5
  ret i32 %93
}