; Function Attrs: null_pointer_is_valid sspstrong uwtable
define hidden i32 @mapi_dissect_struct_RegisterNotification_req(ptr noundef %0, i32 noundef %1, ptr noundef %2, ptr noundef %3, ptr noundef %4, ptr noundef %5, i32 noundef %6, i32 %7) local_unnamed_addr #0 {
  %9 = alloca ptr, align 8
  %10 = alloca i16, align 2
  %11 = getelementptr inbounds nuw i8, ptr %4, i64 26
  %12 = load i8, ptr %11, align 2, !range !9, !noundef !10
  store i8 1, ptr %11, align 2
  %.not = icmp eq ptr %3, null
  br i1 %.not, label %17, label %13

13:                                               ; preds = %8
  %14 = tail call ptr @proto_tree_add_item(ptr noundef nonnull %3, i32 noundef %6, ptr noundef %0, i32 noundef %1, i32 noundef -1, i32 noundef 0)
  %15 = load i32, ptr @ett_mapi_RegisterNotification_req, align 4
  %16 = tail call ptr @proto_item_add_subtree(ptr noundef %14, i32 noundef %15)
  br label %17

17:                                               ; preds = %13, %8
  %.050 = phi ptr [ %16, %13 ], [ null, %8 ]
  %.0 = phi ptr [ %14, %13 ], [ null, %8 ]
  %18 = load i32, ptr @hf_mapi_LogonId, align 4
  %19 = tail call i32 @PIDL_dissect_uint8(ptr noundef %0, i32 noundef %1, ptr noundef %2, ptr noundef %.050, ptr noundef %4, ptr noundef %5, i32 noundef %18, i32 noundef 0)
  %20 = load i32, ptr @hf_mapi_InputHandleIndex, align 4
  %21 = tail call i32 @PIDL_dissect_uint8(ptr noundef %0, i32 noundef %19, ptr noundef %2, ptr noundef %.050, ptr noundef %4, ptr noundef %5, i32 noundef %20, i32 noundef 0)
  %22 = load i32, ptr @hf_mapi_OutputHandleIndex, align 4
  %23 = tail call i32 @PIDL_dissect_uint8(ptr noundef %0, i32 noundef %21, ptr noundef %2, ptr noundef %.050, ptr noundef %4, ptr noundef %5, i32 noundef %22, i32 noundef 0)
  %24 = load i32, ptr @hf_mapi_RegisterNotification_req_notificationFlags, align 4
  call void @llvm.lifetime.start.p0(i64 2, ptr nonnull %10) #6
  store i16 0, ptr %10, align 2
  %25 = call i32 @dissect_ndr_uint16(ptr noundef %0, i32 noundef %23, ptr noundef %2, ptr noundef %.050, ptr noundef %4, ptr noundef %5, i32 noundef %24, ptr noundef nonnull %10)
  call void @llvm.lifetime.end.p0(i64 2, ptr nonnull %10) #6
  %26 = load i32, ptr @hf_mapi_RegisterNotification_req_layout, align 4
  %27 = call i32 @PIDL_dissect_uint8(ptr noundef %0, i32 noundef %25, ptr noundef %2, ptr noundef %.050, ptr noundef %4, ptr noundef %5, i32 noundef %26, i32 noundef 0)
  call void @llvm.lifetime.start.p0(i64 8, ptr nonnull %9) #6
  store ptr null, ptr %9, align 8
  %.not.i.i = icmp eq ptr %.050, null
  br i1 %.not.i.i, label %mapi_dissect_element_RegisterNotification_req_u.exit, label %28

28:                                               ; preds = %17
  %29 = load i32, ptr @ett_mapi_hyperbool, align 4
  %30 = call ptr @proto_tree_add_subtree(ptr noundef nonnull %.050, ptr noundef %0, i32 noundef %27, i32 noundef -1, i32 noundef %29, ptr noundef nonnull %9, ptr noundef nonnull @.str.6157)
  br label %mapi_dissect_element_RegisterNotification_req_u.exit

mapi_dissect_element_RegisterNotification_req_u.exit: ; preds = %28, %17
  %.015.i.i = phi ptr [ %30, %28 ], [ null, %17 ]
  %31 = load i32, ptr @hf_mapi_hyperbool_ID, align 4
  %32 = call i32 @dissect_ndr_uint64(ptr noundef %0, i32 noundef %27, ptr noundef %2, ptr noundef %.015.i.i, ptr noundef %4, ptr noundef %5, i32 noundef %31, ptr noundef null)
  %33 = load ptr, ptr %9, align 8
  %34 = sub i32 %32, %27
  call void @proto_item_set_len(ptr noundef %33, i32 noundef %34)
  call void @llvm.lifetime.end.p0(i64 8, ptr nonnull %9) #6
  %35 = sub i32 %32, %1
  call void @proto_item_set_len(ptr noundef %.0, i32 noundef %35)
  store i8 %12, ptr %11, align 2
  ret i32 %32
}